target datalayout = "e-m:e-p270:32:32-p271:32:32-p272:64:64-i64:64-i128:128-f80:128-n8:16:32:64-S128"
target triple = "x86_64-unknown-linux-gnu"

%struct.grpc_channel_element = type { ptr, ptr }
%struct.grpc_channel_stack = type { %struct.grpc_stream_refcount, i64, i64, %"class.grpc_core::ManualConstructor.3", %"class.grpc_core::ManualConstructor.4" }
%struct.grpc_stream_refcount = type { %"class.grpc_core::RefCount", %struct.grpc_closure }
%"class.grpc_core::RefCount" = type { %"struct.std::atomic.0" }
%"struct.std::atomic.0" = type { %"struct.std::__atomic_base.1" }
%"struct.std::__atomic_base.1" = type { i64 }
%struct.grpc_closure = type { %union.anon, ptr, ptr, %union.anon.2 }
%union.anon = type { ptr }
%union.anon.2 = type { i64 }
%"class.grpc_core::ManualConstructor.3" = type { [32 x i8] }
%"class.grpc_core::ManualConstructor.4" = type { [16 x i8] }

; Function Attrs: mustprogress nounwind uwtable
define noundef ptr @_Z26grpc_channel_stack_elementP18grpc_channel_stackm(ptr noundef %channel_stack, i64 noundef %index) #4 {
entry:
  %channel_stack.addr = alloca ptr, align 8
  %index.addr = alloca i64, align 8
  store ptr %channel_stack, ptr %channel_stack.addr, align 8
  store i64 %index, ptr %index.addr, align 8
  %0 = load ptr, ptr %channel_stack.addr, align 8
  %add.ptr = getelementptr inbounds i8, ptr %0, i64 112
  %1 = load i64, ptr %index.addr, align 8
  %add.ptr1 = getelementptr inbounds %struct.grpc_channel_element, ptr %add.ptr, i64 %1
  ret ptr %add.ptr1
}

; Function Attrs: mustprogress nounwind uwtable
define noundef ptr @_Z31grpc_channel_stack_last_elementP18grpc_channel_stack(ptr noundef %channel_stack) #4 {
entry:
  %channel_stack.addr = alloca ptr, align 8
  store ptr %channel_stack, ptr %channel_stack.addr, align 8
  %0 = load ptr, ptr %channel_stack.addr, align 8
  %1 = load ptr, ptr %channel_stack.addr, align 8
  %count = getelementptr inbounds %struct.grpc_channel_stack, ptr %1, i32 0, i32 1
  %2 = load i64, ptr %count, align 8
  %sub = sub i64 %2, 1
  %call = call noundef ptr @_Z26grpc_channel_stack_elementP18grpc_channel_stackm(ptr noundef %0, i64 noundef %sub)
  ret ptr %call
}