; Function Attrs: mustprogress nofree norecurse nosync nounwind willreturn memory(argmem: read) uwtable
define noundef nonnull ptr @_Z31grpc_channel_stack_last_elementP18grpc_channel_stack(ptr noundef readonly %channel_stack) local_unnamed_addr #5 {
entry:
  %count = getelementptr inbounds i8, ptr %channel_stack, i64 40
  %0 = load i64, ptr %count, align 8
  %add.ptr.i = getelementptr inbounds i8, ptr %channel_stack, i64 112
  %1 = getelementptr %struct.grpc_channel_element, ptr %add.ptr.i, i64 %0
  %add.ptr1.i = getelementptr i8, ptr %1, i64 -16
  ret ptr %add.ptr1.i
}